target datalayout = "e-m:e-p270:32:32-p271:32:32-p272:64:64-i64:64-i128:128-f80:128-n8:16:32:64-S128"
target triple = "x86_64-pc-linux-gnu"

%struct.BlockSizes = type { i32, i32 }
%struct.BlockConf = type { ptr, i32, i32, i32, i32, i32, i32, i32, i32, i32, i32, i32, i32, i32, i32, i8, i32, i32, i32, i32 }
%struct.BlockDriverState = type { i32, i8, i8, i8, i8, i8, ptr, ptr, ptr, %struct.anon, i8, [4096 x i8], [4096 x i8], [4096 x i8], [16 x i8], ptr, [4096 x i8], %struct.BlockLimits, i32, i32, i32, i32, [32 x i8], %union.anon, %union.anon.0, %union.anon.1, i32, [15 x %struct.anon.2], ptr, %struct.anon.3, ptr, ptr, %struct.anon.4, ptr, ptr, i32, ptr, i64, i64, %struct.QemuMutex, %struct.anon.5, %struct.Stat64, i32, i32, i32, i32, i32, i32, %struct.QemuMutex, %struct.anon.6, %struct.CoQueue, i8, i32, i8, %struct.CoMutex, ptr, ptr }
%struct.anon = type { ptr }
%struct.BlockLimits = type { i32, i64, i32, i64, i32, i32, i32, i64, i32, i64, i64, i32, i8, i32, i32, i32, i32, i32, i32, i32 }
%union.anon = type { %struct.QTailQLink }
%struct.QTailQLink = type { ptr, ptr }
%union.anon.0 = type { %struct.QTailQLink }
%union.anon.1 = type { %struct.QTailQLink }
%struct.anon.2 = type { ptr }
%struct.anon.3 = type { ptr }
%struct.anon.4 = type { ptr }
%struct.anon.5 = type { ptr }
%struct.Stat64 = type { i64 }
%struct.QemuMutex = type { %union.pthread_mutex_t, i8 }
%union.pthread_mutex_t = type { %struct.__pthread_mutex_s }
%struct.__pthread_mutex_s = type { i32, i32, i32, i32, i32, i16, i16, %struct.__pthread_internal_list }
%struct.__pthread_internal_list = type { ptr, ptr }
%struct.anon.6 = type { ptr }
%struct.CoQueue = type { %struct.anon.7 }
%struct.anon.7 = type { ptr, ptr }
%struct.CoMutex = type { i32, ptr, %struct.anon.8, %struct.anon.8, i32, i32, ptr }
%struct.anon.8 = type { ptr }

@.str = private unnamed_addr constant [25 x i8] c"../qemu/hw/block/block.c\00", align 1
@__func__.blkconf_blocksizes = private unnamed_addr constant [19 x i8] c"blkconf_blocksizes\00", align 1
@.str.5 = private unnamed_addr constant [55 x i8] c"logical_block_size > physical_block_size not supported\00", align 1
@.str.6 = private unnamed_addr constant [53 x i8] c"min_io_size must be a multiple of logical_block_size\00", align 1
@.str.7 = private unnamed_addr constant [46 x i8] c"min_io_size must not exceed %u logical blocks\00", align 1
@.str.8 = private unnamed_addr constant [53 x i8] c"opt_io_size must be a multiple of logical_block_size\00", align 1
@.str.9 = private unnamed_addr constant [61 x i8] c"discard_granularity must be a multiple of logical_block_size\00", align 1

; Function Attrs: nounwind sspstrong uwtable
define dso_local zeroext i1 @blkconf_blocksizes(ptr noundef %0, ptr noundef %1) #0 {
  %3 = alloca i1, align 1
  %4 = alloca ptr, align 8
  %5 = alloca ptr, align 8
  %6 = alloca ptr, align 8
  %7 = alloca %struct.BlockSizes, align 4
  %8 = alloca ptr, align 8
  %9 = alloca i8, align 1
  %10 = alloca i8, align 1
  %11 = alloca i32, align 4
  store ptr %0, ptr %4, align 8
  store ptr %1, ptr %5, align 8
  call void @llvm.lifetime.start.p0(i64 8, ptr %6) #6
  %12 = load ptr, ptr %4, align 8
  %13 = getelementptr inbounds nuw %struct.BlockConf, ptr %12, i32 0, i32 0
  %14 = load ptr, ptr %13, align 8
  store ptr %14, ptr %6, align 8
  call void @llvm.lifetime.start.p0(i64 8, ptr %7) #6
  call void @llvm.memset.p0.i64(ptr align 4 %7, i8 0, i64 8, i1 false), !annotation !4
  call void @llvm.lifetime.start.p0(i64 8, ptr %8) #6
  store ptr null, ptr %8, align 8, !annotation !4
  call void @llvm.lifetime.start.p0(i64 1, ptr %9) #6
  store i8 0, ptr %9, align 1, !annotation !4
  call void @llvm.lifetime.start.p0(i64 1, ptr %10) #6
  store i8 0, ptr %10, align 1, !annotation !4
  %15 = load ptr, ptr %4, align 8
  %16 = getelementptr inbounds nuw %struct.BlockConf, ptr %15, i32 0, i32 1
  %17 = load i32, ptr %16, align 8
  switch i32 %17, label %36 [
    i32 0, label %18
    i32 1, label %24
    i32 2, label %35
  ]

18:                                               ; preds = %2
  %19 = load ptr, ptr %6, align 8
  %20 = call i32 @blk_probe_blocksizes(ptr noundef %19, ptr noundef %7)
  %21 = icmp ne i32 %20, 0
  %22 = xor i1 %21, true
  %23 = zext i1 %22 to i8
  store i8 %23, ptr %9, align 1
  store i8 0, ptr %10, align 1
  br label %37

24:                                               ; preds = %2
  %25 = load ptr, ptr %6, align 8
  %26 = call i32 @blk_probe_blocksizes(ptr noundef %25, ptr noundef %7)
  %27 = icmp ne i32 %26, 0
  %28 = xor i1 %27, true
  %29 = zext i1 %28 to i8
  store i8 %29, ptr %9, align 1
  %30 = load ptr, ptr %6, align 8
  %31 = call ptr @blk_bs(ptr noundef %30)
  store ptr %31, ptr %8, align 8
  %32 = load ptr, ptr %8, align 8
  %33 = icmp ne ptr %32, null
  %34 = zext i1 %33 to i8
  store i8 %34, ptr %10, align 1
  br label %37

35:                                               ; preds = %2
  store i8 0, ptr %9, align 1
  store i8 0, ptr %10, align 1
  br label %37

36:                                               ; preds = %2
  call void @abort() #7
  unreachable

37:                                               ; preds = %35, %24, %18
  %38 = load ptr, ptr %4, align 8
  %39 = getelementptr inbounds nuw %struct.BlockConf, ptr %38, i32 0, i32 2
  %40 = load i32, ptr %39, align 4
  %41 = icmp ne i32 %40, 0
  br i1 %41, label %54, label %42

42:                                               ; preds = %37
  %43 = load i8, ptr %9, align 1, !range !5, !noundef !6
  %44 = trunc i8 %43 to i1
  br i1 %44, label %45, label %50

45:                                               ; preds = %42
  %46 = getelementptr inbounds nuw %struct.BlockSizes, ptr %7, i32 0, i32 0
  %47 = load i32, ptr %46, align 4
  %48 = load ptr, ptr %4, align 8
  %49 = getelementptr inbounds nuw %struct.BlockConf, ptr %48, i32 0, i32 2
  store i32 %47, ptr %49, align 4
  br label %53

50:                                               ; preds = %42
  %51 = load ptr, ptr %4, align 8
  %52 = getelementptr inbounds nuw %struct.BlockConf, ptr %51, i32 0, i32 2
  store i32 512, ptr %52, align 4
  br label %53

53:                                               ; preds = %50, %45
  br label %54

54:                                               ; preds = %53, %37
  %55 = load ptr, ptr %4, align 8
  %56 = getelementptr inbounds nuw %struct.BlockConf, ptr %55, i32 0, i32 3
  %57 = load i32, ptr %56, align 8
  %58 = icmp ne i32 %57, 0
  br i1 %58, label %71, label %59

59:                                               ; preds = %54
  %60 = load i8, ptr %9, align 1, !range !5, !noundef !6
  %61 = trunc i8 %60 to i1
  br i1 %61, label %62, label %67

62:                                               ; preds = %59
  %63 = getelementptr inbounds nuw %struct.BlockSizes, ptr %7, i32 0, i32 1
  %64 = load i32, ptr %63, align 4
  %65 = load ptr, ptr %4, align 8
  %66 = getelementptr inbounds nuw %struct.BlockConf, ptr %65, i32 0, i32 3
  store i32 %64, ptr %66, align 8
  br label %70

67:                                               ; preds = %59
  %68 = load ptr, ptr %4, align 8
  %69 = getelementptr inbounds nuw %struct.BlockConf, ptr %68, i32 0, i32 3
  store i32 512, ptr %69, align 8
  br label %70

70:                                               ; preds = %67, %62
  br label %71

71:                                               ; preds = %70, %54
  %72 = load i8, ptr %10, align 1, !range !5, !noundef !6
  %73 = trunc i8 %72 to i1
  br i1 %73, label %74, label %120

74:                                               ; preds = %71
  %75 = load ptr, ptr %4, align 8
  %76 = getelementptr inbounds nuw %struct.BlockConf, ptr %75, i32 0, i32 5
  %77 = load i32, ptr %76, align 8
  %78 = icmp ne i32 %77, 0
  br i1 %78, label %86, label %79

79:                                               ; preds = %74
  %80 = load ptr, ptr %8, align 8
  %81 = getelementptr inbounds nuw %struct.BlockDriverState, ptr %80, i32 0, i32 17
  %82 = getelementptr inbounds nuw %struct.BlockLimits, ptr %81, i32 0, i32 5
  %83 = load i32, ptr %82, align 4
  %84 = load ptr, ptr %4, align 8
  %85 = getelementptr inbounds nuw %struct.BlockConf, ptr %84, i32 0, i32 5
  store i32 %83, ptr %85, align 8
  br label %86

86:                                               ; preds = %79, %74
  %87 = load ptr, ptr %4, align 8
  %88 = getelementptr inbounds nuw %struct.BlockConf, ptr %87, i32 0, i32 7
  %89 = load i32, ptr %88, align 8
  %90 = icmp eq i32 %89, -1
  br i1 %90, label %91, label %119

91:                                               ; preds = %86
  %92 = load ptr, ptr %8, align 8
  %93 = getelementptr inbounds nuw %struct.BlockDriverState, ptr %92, i32 0, i32 17
  %94 = getelementptr inbounds nuw %struct.BlockLimits, ptr %93, i32 0, i32 2
  %95 = load i32, ptr %94, align 8
  %96 = icmp ne i32 %95, 0
  br i1 %96, label %97, label %104

97:                                               ; preds = %91
  %98 = load ptr, ptr %8, align 8
  %99 = getelementptr inbounds nuw %struct.BlockDriverState, ptr %98, i32 0, i32 17
  %100 = getelementptr inbounds nuw %struct.BlockLimits, ptr %99, i32 0, i32 2
  %101 = load i32, ptr %100, align 8
  %102 = load ptr, ptr %4, align 8
  %103 = getelementptr inbounds nuw %struct.BlockConf, ptr %102, i32 0, i32 7
  store i32 %101, ptr %103, align 8
  br label %118

104:                                              ; preds = %91
  %105 = load ptr, ptr %8, align 8
  %106 = getelementptr inbounds nuw %struct.BlockDriverState, ptr %105, i32 0, i32 17
  %107 = getelementptr inbounds nuw %struct.BlockLimits, ptr %106, i32 0, i32 0
  %108 = load i32, ptr %107, align 8
  %109 = icmp ne i32 %108, 1
  br i1 %109, label %110, label %117

110:                                              ; preds = %104
  %111 = load ptr, ptr %8, align 8
  %112 = getelementptr inbounds nuw %struct.BlockDriverState, ptr %111, i32 0, i32 17
  %113 = getelementptr inbounds nuw %struct.BlockLimits, ptr %112, i32 0, i32 0
  %114 = load i32, ptr %113, align 8
  %115 = load ptr, ptr %4, align 8
  %116 = getelementptr inbounds nuw %struct.BlockConf, ptr %115, i32 0, i32 7
  store i32 %114, ptr %116, align 8
  br label %117

117:                                              ; preds = %110, %104
  br label %118

118:                                              ; preds = %117, %97
  br label %119

119:                                              ; preds = %118, %86
  br label %120

120:                                              ; preds = %119, %71
  %121 = load ptr, ptr %4, align 8
  %122 = getelementptr inbounds nuw %struct.BlockConf, ptr %121, i32 0, i32 3
  %123 = load i32, ptr %122, align 8
  %124 = load ptr, ptr %4, align 8
  %125 = getelementptr inbounds nuw %struct.BlockConf, ptr %124, i32 0, i32 2
  %126 = load i32, ptr %125, align 4
  %127 = icmp ugt i32 %123, %126
  br i1 %127, label %128, label %130

128:                                              ; preds = %120
  %129 = load ptr, ptr %5, align 8
  call void (ptr, ptr, i32, ptr, ptr, ...) @error_setg_internal(ptr noundef %129, ptr noundef @.str, i32 noundef 162, ptr noundef @__func__.blkconf_blocksizes, ptr noundef @.str.5)
  store i1 false, ptr %3, align 1
  store i32 1, ptr %11, align 4
  br label %180

130:                                              ; preds = %120
  %131 = load ptr, ptr %4, align 8
  %132 = getelementptr inbounds nuw %struct.BlockConf, ptr %131, i32 0, i32 4
  %133 = load i32, ptr %132, align 4
  %134 = load ptr, ptr %4, align 8
  %135 = getelementptr inbounds nuw %struct.BlockConf, ptr %134, i32 0, i32 3
  %136 = load i32, ptr %135, align 8
  %137 = urem i32 %133, %136
  %138 = icmp eq i32 %137, 0
  br i1 %138, label %141, label %139

139:                                              ; preds = %130
  %140 = load ptr, ptr %5, align 8
  call void (ptr, ptr, i32, ptr, ptr, ...) @error_setg_internal(ptr noundef %140, ptr noundef @.str, i32 noundef 168, ptr noundef @__func__.blkconf_blocksizes, ptr noundef @.str.6)
  store i1 false, ptr %3, align 1
  store i32 1, ptr %11, align 4
  br label %180

141:                                              ; preds = %130
  %142 = load ptr, ptr %4, align 8
  %143 = getelementptr inbounds nuw %struct.BlockConf, ptr %142, i32 0, i32 4
  %144 = load i32, ptr %143, align 4
  %145 = load ptr, ptr %4, align 8
  %146 = getelementptr inbounds nuw %struct.BlockConf, ptr %145, i32 0, i32 3
  %147 = load i32, ptr %146, align 8
  %148 = udiv i32 %144, %147
  %149 = icmp ugt i32 %148, 65535
  br i1 %149, label %150, label %152

150:                                              ; preds = %141
  %151 = load ptr, ptr %5, align 8
  call void (ptr, ptr, i32, ptr, ptr, ...) @error_setg_internal(ptr noundef %151, ptr noundef @.str, i32 noundef 178, ptr noundef @__func__.blkconf_blocksizes, ptr noundef @.str.7, i32 noundef 65535)
  store i1 false, ptr %3, align 1
  store i32 1, ptr %11, align 4
  br label %180

152:                                              ; preds = %141
  %153 = load ptr, ptr %4, align 8
  %154 = getelementptr inbounds nuw %struct.BlockConf, ptr %153, i32 0, i32 5
  %155 = load i32, ptr %154, align 8
  %156 = load ptr, ptr %4, align 8
  %157 = getelementptr inbounds nuw %struct.BlockConf, ptr %156, i32 0, i32 3
  %158 = load i32, ptr %157, align 8
  %159 = urem i32 %155, %158
  %160 = icmp eq i32 %159, 0
  br i1 %160, label %163, label %161

161:                                              ; preds = %152
  %162 = load ptr, ptr %5, align 8
  call void (ptr, ptr, i32, ptr, ptr, ...) @error_setg_internal(ptr noundef %162, ptr noundef @.str, i32 noundef 184, ptr noundef @__func__.blkconf_blocksizes, ptr noundef @.str.8)
  store i1 false, ptr %3, align 1
  store i32 1, ptr %11, align 4
  br label %180

163:                                              ; preds = %152
  %164 = load ptr, ptr %4, align 8
  %165 = getelementptr inbounds nuw %struct.BlockConf, ptr %164, i32 0, i32 7
  %166 = load i32, ptr %165, align 8
  %167 = icmp ne i32 %166, -1
  br i1 %167, label %168, label %179

168:                                              ; preds = %163
  %169 = load ptr, ptr %4, align 8
  %170 = getelementptr inbounds nuw %struct.BlockConf, ptr %169, i32 0, i32 7
  %171 = load i32, ptr %170, align 8
  %172 = load ptr, ptr %4, align 8
  %173 = getelementptr inbounds nuw %struct.BlockConf, ptr %172, i32 0, i32 3
  %174 = load i32, ptr %173, align 8
  %175 = urem i32 %171, %174
  %176 = icmp eq i32 %175, 0
  br i1 %176, label %179, label %177

177:                                              ; preds = %168
  %178 = load ptr, ptr %5, align 8
  call void (ptr, ptr, i32, ptr, ptr, ...) @error_setg_internal(ptr noundef %178, ptr noundef @.str, i32 noundef 192, ptr noundef @__func__.blkconf_blocksizes, ptr noundef @.str.9)
  store i1 false, ptr %3, align 1
  store i32 1, ptr %11, align 4
  br label %180

179:                                              ; preds = %168, %163
  store i1 true, ptr %3, align 1
  store i32 1, ptr %11, align 4
  br label %180

180:                                              ; preds = %179, %177, %161, %150, %139, %128
  call void @llvm.lifetime.end.p0(i64 1, ptr %10) #6
  call void @llvm.lifetime.end.p0(i64 1, ptr %9) #6
  call void @llvm.lifetime.end.p0(i64 8, ptr %8) #6
  call void @llvm.lifetime.end.p0(i64 8, ptr %7) #6
  call void @llvm.lifetime.end.p0(i64 8, ptr %6) #6
  %181 = load i1, ptr %3, align 1
  ret i1 %181
}