; Function Attrs: nounwind sspstrong uwtable
define dso_local noundef zeroext i1 @blkconf_blocksizes(ptr noundef captures(none) %0, ptr noundef %1) local_unnamed_addr #0 {
  %3 = alloca %struct.BlockSizes, align 8
  %4 = load ptr, ptr %0, align 8
  call void @llvm.lifetime.start.p0(i64 8, ptr nonnull %3) #6
  store i64 0, ptr %3, align 8, !annotation !4
  %5 = getelementptr inbounds nuw i8, ptr %0, i64 8
  %6 = load i32, ptr %5, align 8
  switch i32 %6, label %13 [
    i32 0, label %7
    i32 1, label %9
    i32 2, label %.thread
  ]

7:                                                ; preds = %2
  %8 = call i32 @blk_probe_blocksizes(ptr noundef %4, ptr noundef nonnull %3) #6
  br label %14

9:                                                ; preds = %2
  %10 = call i32 @blk_probe_blocksizes(ptr noundef %4, ptr noundef nonnull %3) #6
  %11 = call ptr @blk_bs(ptr noundef %4) #6
  %12 = icmp ne ptr %11, null
  br label %14

13:                                               ; preds = %2
  tail call void @abort() #7
  unreachable

14:                                               ; preds = %9, %7
  %.042 = phi ptr [ %11, %9 ], [ null, %7 ]
  %.041.shrunk.in = phi i32 [ %10, %9 ], [ %8, %7 ]
  %.0 = phi i1 [ %12, %9 ], [ false, %7 ]
  %.041.shrunk = icmp eq i32 %.041.shrunk.in, 0
  %15 = getelementptr inbounds nuw i8, ptr %0, i64 12
  %16 = load i32, ptr %15, align 4
  %.not49 = icmp eq i32 %16, 0
  br i1 %.not49, label %19, label %22

.thread:                                          ; preds = %2
  %17 = getelementptr inbounds nuw i8, ptr %0, i64 12
  %18 = load i32, ptr %17, align 4
  %.not4958 = icmp eq i32 %18, 0
  br i1 %.not4958, label %.thread94.thread, label %.thread72

19:                                               ; preds = %14
  br i1 %.041.shrunk, label %20, label %.thread94

20:                                               ; preds = %19
  %21 = load i32, ptr %3, align 8
  store i32 %21, ptr %15, align 4
  br label %22

22:                                               ; preds = %20, %14
  %.041.shrunk62 = phi i1 [ true, %20 ], [ %.041.shrunk, %14 ]
  %23 = getelementptr inbounds nuw i8, ptr %0, i64 16
  %24 = load i32, ptr %23, align 8
  %.not50 = icmp eq i32 %24, 0
  br i1 %.not50, label %31, label %35

.thread94:                                        ; preds = %19
  store i32 512, ptr %15, align 4
  %25 = getelementptr inbounds nuw i8, ptr %0, i64 16
  %26 = load i32, ptr %25, align 8
  %.not5098 = icmp eq i32 %26, 0
  br i1 %.not5098, label %.thread105, label %35

.thread94.thread:                                 ; preds = %.thread
  store i32 512, ptr %17, align 4
  %27 = getelementptr inbounds nuw i8, ptr %0, i64 16
  %28 = load i32, ptr %27, align 8
  %.not5098113 = icmp eq i32 %28, 0
  br i1 %.not5098113, label %.thread105.thread, label %.thread88

.thread105.thread:                                ; preds = %.thread94.thread
  store i32 512, ptr %27, align 8
  br label %.thread88

.thread105:                                       ; preds = %.thread94
  store i32 512, ptr %25, align 8
  br i1 %.0, label %37, label %.thread88

.thread72:                                        ; preds = %.thread
  %29 = getelementptr inbounds nuw i8, ptr %0, i64 16
  %30 = load i32, ptr %29, align 8
  %.not5076 = icmp eq i32 %30, 0
  br i1 %.not5076, label %.thread82.thread, label %.thread88

.thread82.thread:                                 ; preds = %.thread72
  store i32 512, ptr %29, align 8
  br label %.thread88

31:                                               ; preds = %22
  br i1 %.041.shrunk62, label %32, label %.thread82

32:                                               ; preds = %31
  %33 = getelementptr inbounds nuw i8, ptr %3, i64 4
  %34 = load i32, ptr %33, align 4
  store i32 %34, ptr %23, align 8
  br i1 %.0, label %37, label %.thread88

.thread82:                                        ; preds = %31
  store i32 512, ptr %23, align 8
  br i1 %.0, label %37, label %.thread88

35:                                               ; preds = %.thread94, %22
  %36 = phi i32 [ %26, %.thread94 ], [ %24, %22 ]
  br i1 %.0, label %37, label %.thread88

37:                                               ; preds = %.thread105, %.thread82, %32, %35
  %38 = phi i32 [ 512, %.thread82 ], [ %34, %32 ], [ %36, %35 ], [ 512, %.thread105 ]
  %39 = getelementptr inbounds nuw i8, ptr %0, i64 24
  %40 = load i32, ptr %39, align 8
  %.not51 = icmp eq i32 %40, 0
  br i1 %.not51, label %41, label %44

41:                                               ; preds = %37
  %42 = getelementptr inbounds nuw i8, ptr %.042, i64 16500
  %43 = load i32, ptr %42, align 4
  store i32 %43, ptr %39, align 8
  br label %44

44:                                               ; preds = %41, %37
  %45 = getelementptr inbounds nuw i8, ptr %0, i64 32
  %46 = load i32, ptr %45, align 8
  %47 = icmp eq i32 %46, -1
  br i1 %47, label %48, label %.thread88

48:                                               ; preds = %44
  %49 = getelementptr inbounds nuw i8, ptr %.042, i64 16480
  %50 = load i32, ptr %49, align 8
  %.not52 = icmp eq i32 %50, 0
  br i1 %.not52, label %52, label %51

51:                                               ; preds = %48
  store i32 %50, ptr %45, align 8
  br label %.thread88

52:                                               ; preds = %48
  %53 = getelementptr inbounds nuw i8, ptr %.042, i64 16464
  %54 = load i32, ptr %53, align 8
  %.not53 = icmp eq i32 %54, 1
  br i1 %.not53, label %.thread88, label %55

55:                                               ; preds = %52
  store i32 %54, ptr %45, align 8
  br label %.thread88

.thread88:                                        ; preds = %.thread94.thread, %.thread105.thread, %.thread105, %.thread82.thread, %.thread72, %.thread82, %32, %44, %52, %55, %51, %35
  %56 = phi i32 [ %38, %44 ], [ %38, %52 ], [ %38, %55 ], [ %38, %51 ], [ %36, %35 ], [ %34, %32 ], [ 512, %.thread82 ], [ %30, %.thread72 ], [ 512, %.thread82.thread ], [ 512, %.thread105 ], [ 512, %.thread105.thread ], [ %28, %.thread94.thread ]
  %57 = phi ptr [ %15, %44 ], [ %15, %52 ], [ %15, %55 ], [ %15, %51 ], [ %15, %35 ], [ %15, %32 ], [ %15, %.thread82 ], [ %17, %.thread72 ], [ %17, %.thread82.thread ], [ %15, %.thread105 ], [ %17, %.thread105.thread ], [ %17, %.thread94.thread ]
  %58 = load i32, ptr %57, align 4
  %59 = icmp ugt i32 %56, %58
  br i1 %59, label %60, label %61

60:                                               ; preds = %.thread88
  call void (ptr, ptr, i32, ptr, ptr, ...) @error_setg_internal(ptr noundef %1, ptr noundef nonnull @.str, i32 noundef 162, ptr noundef nonnull @__func__.blkconf_blocksizes, ptr noundef nonnull @.str.5) #6
  br label %84

61:                                               ; preds = %.thread88
  %62 = getelementptr inbounds nuw i8, ptr %0, i64 20
  %63 = load i32, ptr %62, align 4
  %64 = urem i32 %63, %56
  %65 = udiv i32 %63, %56
  %66 = icmp eq i32 %64, 0
  br i1 %66, label %68, label %67

67:                                               ; preds = %61
  call void (ptr, ptr, i32, ptr, ptr, ...) @error_setg_internal(ptr noundef %1, ptr noundef nonnull @.str, i32 noundef 168, ptr noundef nonnull @__func__.blkconf_blocksizes, ptr noundef nonnull @.str.6) #6
  br label %84

68:                                               ; preds = %61
  %69 = icmp ugt i32 %65, 65535
  br i1 %69, label %70, label %71

70:                                               ; preds = %68
  call void (ptr, ptr, i32, ptr, ptr, ...) @error_setg_internal(ptr noundef %1, ptr noundef nonnull @.str, i32 noundef 178, ptr noundef nonnull @__func__.blkconf_blocksizes, ptr noundef nonnull @.str.7, i32 noundef 65535) #6
  br label %84

71:                                               ; preds = %68
  %72 = getelementptr inbounds nuw i8, ptr %0, i64 24
  %73 = load i32, ptr %72, align 8
  %74 = urem i32 %73, %56
  %75 = icmp eq i32 %74, 0
  br i1 %75, label %77, label %76

76:                                               ; preds = %71
  call void (ptr, ptr, i32, ptr, ptr, ...) @error_setg_internal(ptr noundef %1, ptr noundef nonnull @.str, i32 noundef 184, ptr noundef nonnull @__func__.blkconf_blocksizes, ptr noundef nonnull @.str.8) #6
  br label %84

77:                                               ; preds = %71
  %78 = getelementptr inbounds nuw i8, ptr %0, i64 32
  %79 = load i32, ptr %78, align 8
  %.not54 = icmp eq i32 %79, -1
  br i1 %.not54, label %84, label %80

80:                                               ; preds = %77
  %81 = urem i32 %79, %56
  %82 = icmp eq i32 %81, 0
  br i1 %82, label %84, label %83

83:                                               ; preds = %80
  call void (ptr, ptr, i32, ptr, ptr, ...) @error_setg_internal(ptr noundef %1, ptr noundef nonnull @.str, i32 noundef 192, ptr noundef nonnull @__func__.blkconf_blocksizes, ptr noundef nonnull @.str.9) #6
  br label %84

84:                                               ; preds = %77, %80, %83, %76, %70, %67, %60
  %.043 = phi i1 [ false, %60 ], [ false, %70 ], [ false, %83 ], [ false, %76 ], [ false, %67 ], [ true, %80 ], [ true, %77 ]
  call void @llvm.lifetime.end.p0(i64 8, ptr nonnull %3) #6
  ret i1 %.043
}